target datalayout = "e-m:e-p270:32:32-p271:32:32-p272:64:64-i64:64-i128:128-f80:128-n8:16:32:64-S128"
target triple = "x86_64-pc-linux-gnu"

%"class.cv::rgbd::DepthCleaner" = type { %"class.cv::Algorithm", i32, i32, i32, ptr }
%"class.cv::Algorithm" = type { ptr }
%"class.cv::rgbd::DepthCleanerImpl" = type <{ ptr, i32, i32, i32, [4 x i8] }>

; Function Attrs: mustprogress nounwind uwtable
define linkonce_odr hidden noundef zeroext i1 @_ZNK2cv4rgbd16DepthCleanerImpl8validateEiii(ptr noundef nonnull align 8 dereferenceable(20) %0, i32 noundef %1, i32 noundef %2, i32 noundef %3) #7 comdat align 2 {
  %5 = alloca ptr, align 8
  %6 = alloca i32, align 4
  %7 = alloca i32, align 4
  %8 = alloca i32, align 4
  store ptr %0, ptr %5, align 8, !tbaa !32
  store i32 %1, ptr %6, align 4, !tbaa !8
  store i32 %2, ptr %7, align 4, !tbaa !8
  store i32 %3, ptr %8, align 4, !tbaa !8
  %9 = load ptr, ptr %5, align 8
  %10 = load i32, ptr %7, align 4, !tbaa !8
  %11 = getelementptr inbounds nuw %"class.cv::rgbd::DepthCleanerImpl", ptr %9, i32 0, i32 2
  %12 = load i32, ptr %11, align 4, !tbaa !34
  %13 = icmp eq i32 %10, %12
  br i1 %13, label %14, label %24

14:                                               ; preds = %4
  %15 = load i32, ptr %6, align 4, !tbaa !8
  %16 = getelementptr inbounds nuw %"class.cv::rgbd::DepthCleanerImpl", ptr %9, i32 0, i32 1
  %17 = load i32, ptr %16, align 8, !tbaa !36
  %18 = icmp eq i32 %15, %17
  br i1 %18, label %19, label %24

19:                                               ; preds = %14
  %20 = load i32, ptr %8, align 4, !tbaa !8
  %21 = getelementptr inbounds nuw %"class.cv::rgbd::DepthCleanerImpl", ptr %9, i32 0, i32 3
  %22 = load i32, ptr %21, align 8, !tbaa !37
  %23 = icmp eq i32 %20, %22
  br label %24

24:                                               ; preds = %19, %14, %4
  %25 = phi i1 [ false, %14 ], [ false, %4 ], [ %23, %19 ]
  ret i1 %25
}

; Function Attrs: mustprogress uwtable
define void @_ZNK2cv4rgbd12DepthCleaner10initializeEv(ptr noundef nonnull align 8 dereferenceable(32) %0) #4 align 2 {
  %2 = alloca ptr, align 8
  store ptr %0, ptr %2, align 8, !tbaa !3
  %3 = load ptr, ptr %2, align 8
  %4 = getelementptr inbounds nuw %"class.cv::rgbd::DepthCleaner", ptr %3, i32 0, i32 4
  %5 = load ptr, ptr %4, align 8, !tbaa !17
  %6 = icmp eq ptr %5, null
  br i1 %6, label %7, label %8

7:                                                ; preds = %1
  call void @_ZNK2cv4rgbd12DepthCleaner23initialize_cleaner_implEv(ptr noundef nonnull align 8 dereferenceable(32) %3)
  br label %20

8:                                                ; preds = %1
  %9 = getelementptr inbounds nuw %"class.cv::rgbd::DepthCleaner", ptr %3, i32 0, i32 4
  %10 = load ptr, ptr %9, align 8, !tbaa !17
  %11 = getelementptr inbounds nuw %"class.cv::rgbd::DepthCleaner", ptr %3, i32 0, i32 1
  %12 = load i32, ptr %11, align 8, !tbaa !12
  %13 = getelementptr inbounds nuw %"class.cv::rgbd::DepthCleaner", ptr %3, i32 0, i32 2
  %14 = load i32, ptr %13, align 4, !tbaa !15
  %15 = getelementptr inbounds nuw %"class.cv::rgbd::DepthCleaner", ptr %3, i32 0, i32 3
  %16 = load i32, ptr %15, align 8, !tbaa !16
  %17 = call noundef zeroext i1 @_ZNK2cv4rgbd16DepthCleanerImpl8validateEiii(ptr noundef nonnull align 8 dereferenceable(20) %10, i32 noundef %12, i32 noundef %14, i32 noundef %16)
  br i1 %17, label %19, label %18

18:                                               ; preds = %8
  call void @_ZNK2cv4rgbd12DepthCleaner23initialize_cleaner_implEv(ptr noundef nonnull align 8 dereferenceable(32) %3)
  br label %19

19:                                               ; preds = %18, %8
  br label %20

20:                                               ; preds = %19, %7
  ret void
}