; Function Attrs: mustprogress uwtable
define void @_ZNK2cv4rgbd12DepthCleaner10initializeEv(ptr noundef nonnull align 8 captures(none) dereferenceable(32) %0) local_unnamed_addr #3 align 2 {
  %2 = getelementptr inbounds nuw i8, ptr %0, i64 24
  %3 = load ptr, ptr %2, align 8, !tbaa !14
  %4 = icmp eq ptr %3, null
  br i1 %4, label %.sink.split, label %5

5:                                                ; preds = %1
  %6 = getelementptr inbounds nuw i8, ptr %0, i64 8
  %7 = load i32, ptr %6, align 8, !tbaa !6
  %8 = getelementptr inbounds nuw i8, ptr %0, i64 12
  %9 = load i32, ptr %8, align 4, !tbaa !12
  %10 = getelementptr inbounds nuw i8, ptr %3, i64 12
  %11 = load i32, ptr %10, align 4, !tbaa !24
  %12 = icmp eq i32 %9, %11
  %13 = getelementptr inbounds nuw i8, ptr %3, i64 8
  %14 = load i32, ptr %13, align 8
  %15 = icmp eq i32 %7, %14
  %or.cond.i = select i1 %12, i1 %15, i1 false
  br i1 %or.cond.i, label %_ZNK2cv4rgbd16DepthCleanerImpl8validateEiii.exit, label %.sink.split

_ZNK2cv4rgbd16DepthCleanerImpl8validateEiii.exit: ; preds = %5
  %16 = getelementptr inbounds nuw i8, ptr %0, i64 16
  %17 = load i32, ptr %16, align 8, !tbaa !13
  %18 = getelementptr inbounds nuw i8, ptr %3, i64 16
  %19 = load i32, ptr %18, align 8, !tbaa !25
  %20 = icmp eq i32 %17, %19
  br i1 %20, label %21, label %.sink.split

.sink.split:                                      ; preds = %_ZNK2cv4rgbd16DepthCleanerImpl8validateEiii.exit, %5, %1
  tail call void @_ZNK2cv4rgbd12DepthCleaner23initialize_cleaner_implEv(ptr noundef nonnull align 8 dereferenceable(32) %0)
  br label %21

21:                                               ; preds = %.sink.split, %_ZNK2cv4rgbd16DepthCleanerImpl8validateEiii.exit
  ret void
}